target datalayout = "e-m:e-p270:32:32-p271:32:32-p272:64:64-i64:64-i128:128-f80:128-n8:16:32:64-S128"
target triple = "x86_64-pc-linux-gnu"

%"class.ue2::CharReach" = type { %"class.ue2::bitfield" }
%"class.ue2::bitfield" = type { %"struct.std::array" }
%"struct.std::array" = type { [4 x i64] }

; Function Attrs: mustprogress nounwind uwtable
define linkonce_odr dso_local noundef nonnull align 8 dereferenceable(8) ptr @_ZNSt14__array_traitsIyLm4EE6_S_refERA4_Kym(ptr noundef nonnull align 8 dereferenceable(32) %0, i64 noundef %1) #5 comdat align 2 {
  %3 = alloca ptr, align 8
  %4 = alloca i64, align 8
  store ptr %0, ptr %3, align 8
  store i64 %1, ptr %4, align 8
  %5 = load ptr, ptr %3, align 8
  %6 = load i64, ptr %4, align 8
  %7 = getelementptr inbounds nuw [4 x i64], ptr %5, i64 0, i64 %6
  ret ptr %7
}

; Function Attrs: mustprogress nounwind uwtable
define linkonce_odr dso_local noundef nonnull align 8 dereferenceable(8) ptr @_ZNSt5arrayIyLm4EEixEm(ptr noundef nonnull align 8 dereferenceable(32) %0, i64 noundef %1) #5 comdat align 2 {
  %3 = alloca ptr, align 8
  %4 = alloca i64, align 8
  store ptr %0, ptr %3, align 8
  store i64 %1, ptr %4, align 8
  %5 = load ptr, ptr %3, align 8
  %6 = getelementptr inbounds nuw %"struct.std::array", ptr %5, i32 0, i32 0
  %7 = load i64, ptr %4, align 8
  %8 = call noundef nonnull align 8 dereferenceable(8) ptr @_ZNSt14__array_traitsIyLm4EE6_S_refERA4_Kym(ptr noundef nonnull align 8 dereferenceable(32) %6, i64 noundef %7) #7
  ret ptr %8
}

; Function Attrs: mustprogress nounwind uwtable
define linkonce_odr hidden noundef i64 @_ZN3ue28bitfieldILm256EE7getwordEm(i64 noundef %0) #5 comdat align 2 {
  %2 = alloca i64, align 8
  store i64 %0, ptr %2, align 8
  %3 = load i64, ptr %2, align 8
  %4 = udiv i64 %3, 64
  ret i64 %4
}

; Function Attrs: mustprogress nounwind uwtable
define linkonce_odr hidden noundef i64 @_ZN3ue28bitfieldILm256EE7maskbitEm(i64 noundef %0) #5 comdat align 2 {
  %2 = alloca i64, align 8
  store i64 %0, ptr %2, align 8
  %3 = load i64, ptr %2, align 8
  %4 = urem i64 %3, 64
  %5 = shl i64 1, %4
  ret i64 %5
}

; Function Attrs: mustprogress uwtable
define linkonce_odr hidden void @_ZN3ue28bitfieldILm256EE3setEm(ptr noundef nonnull align 8 dereferenceable(32) %0, i64 noundef %1) #0 comdat align 2 {
  %3 = alloca ptr, align 8
  %4 = alloca i64, align 8
  store ptr %0, ptr %3, align 8
  store i64 %1, ptr %4, align 8
  %5 = load ptr, ptr %3, align 8
  %6 = load i64, ptr %4, align 8
  %7 = call noundef i64 @_ZN3ue28bitfieldILm256EE7maskbitEm(i64 noundef %6)
  %8 = getelementptr inbounds nuw %"class.ue2::bitfield", ptr %5, i32 0, i32 0
  %9 = load i64, ptr %4, align 8
  %10 = call noundef i64 @_ZN3ue28bitfieldILm256EE7getwordEm(i64 noundef %9)
  %11 = call noundef nonnull align 8 dereferenceable(8) ptr @_ZNSt5arrayIyLm4EEixEm(ptr noundef nonnull align 8 dereferenceable(32) %8, i64 noundef %10) #7
  %12 = load i64, ptr %11, align 8
  %13 = or i64 %12, %7
  store i64 %13, ptr %11, align 8
  ret void
}

; Function Attrs: mustprogress nounwind uwtable
define linkonce_odr hidden void @_ZN3ue28bitfieldILm256EEC2Ev(ptr noundef nonnull align 8 dereferenceable(32) %0) unnamed_addr #5 comdat align 2 {
  %2 = alloca ptr, align 8
  store ptr %0, ptr %2, align 8
  %3 = load ptr, ptr %2, align 8
  %4 = getelementptr inbounds nuw %"class.ue2::bitfield", ptr %3, i32 0, i32 0
  call void @llvm.memset.p0.i64(ptr align 8 %4, i8 0, i64 32, i1 false)
  ret void
}

; Function Attrs: mustprogress uwtable
define linkonce_odr hidden void @_ZN3ue29CharReach3setEh(ptr noundef nonnull align 8 dereferenceable(32) %0, i8 noundef zeroext %1) #0 comdat align 2 {
  %3 = alloca ptr, align 8
  %4 = alloca i8, align 1
  store ptr %0, ptr %3, align 8
  store i8 %1, ptr %4, align 1
  %5 = load ptr, ptr %3, align 8
  %6 = getelementptr inbounds nuw %"class.ue2::CharReach", ptr %5, i32 0, i32 0
  %7 = load i8, ptr %4, align 1
  %8 = zext i8 %7 to i64
  call void @_ZN3ue28bitfieldILm256EE3setEm(ptr noundef nonnull align 8 dereferenceable(32) %6, i64 noundef %8)
  ret void
}

; Function Attrs: alwaysinline mustprogress nounwind uwtable
define internal noundef i32 @_ZL18findAndClearLSB_32Pj(ptr noundef %0) #3 {
  %2 = alloca ptr, align 8
  %3 = alloca i32, align 4
  %4 = alloca i32, align 4
  store ptr %0, ptr %2, align 8
  call void @llvm.lifetime.start.p0(i64 4, ptr %3) #7
  %5 = load ptr, ptr %2, align 8
  %6 = load i32, ptr %5, align 4
  store i32 %6, ptr %3, align 4
  call void @llvm.lifetime.start.p0(i64 4, ptr %4) #7
  %7 = load i32, ptr %3, align 4
  %8 = call { i32, i32 } asm "bsf $1, $0\0Abtr $0, $1\0A", "=r,=r,1,~{dirflag},~{fpsr},~{flags}"(i32 %7) #8, !srcloc !10
  %9 = extractvalue { i32, i32 } %8, 0
  %10 = extractvalue { i32, i32 } %8, 1
  store i32 %9, ptr %4, align 4
  store i32 %10, ptr %3, align 4
  %11 = load i32, ptr %3, align 4
  %12 = load ptr, ptr %2, align 8
  store i32 %11, ptr %12, align 4
  %13 = load i32, ptr %4, align 4
  call void @llvm.lifetime.end.p0(i64 4, ptr %4) #7
  call void @llvm.lifetime.end.p0(i64 4, ptr %3) #7
  ret i32 %13
}

; Function Attrs: mustprogress uwtable
define linkonce_odr hidden void @_ZN3ue29CharReachC2Ev(ptr noundef nonnull align 8 dereferenceable(32) %0) unnamed_addr #0 comdat align 2 {
  %2 = alloca ptr, align 8
  store ptr %0, ptr %2, align 8
  %3 = load ptr, ptr %2, align 8
  %4 = getelementptr inbounds nuw %"class.ue2::CharReach", ptr %3, i32 0, i32 0
  call void @_ZN3ue28bitfieldILm256EEC2Ev(ptr noundef nonnull align 8 dereferenceable(32) %4)
  ret void
}

; Function Attrs: mustprogress uwtable
define hidden void @_ZN3ue210truffle2crEPKhS1_(ptr dead_on_unwind noalias writable sret(%"class.ue2::CharReach") align 8 %0, ptr noundef %1, ptr noundef %2) #0 {
  %4 = alloca ptr, align 8
  %5 = alloca ptr, align 8
  %6 = alloca i8, align 1
  %7 = alloca i32, align 4
  %8 = alloca i32, align 4
  %9 = alloca i32, align 4
  store ptr %1, ptr %4, align 8
  store ptr %2, ptr %5, align 8
  call void @_ZN3ue29CharReachC2Ev(ptr noundef nonnull align 8 dereferenceable(32) %0)
  call void @llvm.lifetime.start.p0(i64 1, ptr %6) #7
  store i8 0, ptr %6, align 1
  br label %10

10:                                               ; preds = %53, %3
  %11 = load i8, ptr %6, align 1
  %12 = zext i8 %11 to i32
  %13 = icmp slt i32 %12, 16
  br i1 %13, label %15, label %14

14:                                               ; preds = %10
  call void @llvm.lifetime.end.p0(i64 1, ptr %6) #7
  br label %56

15:                                               ; preds = %10
  call void @llvm.lifetime.start.p0(i64 4, ptr %7) #7
  %16 = load ptr, ptr %4, align 8
  %17 = load i8, ptr %6, align 1
  %18 = zext i8 %17 to i64
  %19 = getelementptr inbounds nuw i8, ptr %16, i64 %18
  %20 = load i8, ptr %19, align 1
  %21 = zext i8 %20 to i32
  store i32 %21, ptr %7, align 4
  br label %22

22:                                               ; preds = %25, %15
  %23 = load i32, ptr %7, align 4
  %24 = icmp ne i32 %23, 0
  br i1 %24, label %25, label %33

25:                                               ; preds = %22
  call void @llvm.lifetime.start.p0(i64 4, ptr %8) #7
  %26 = call noundef i32 @_ZL18findAndClearLSB_32Pj(ptr noundef %7)
  store i32 %26, ptr %8, align 4
  %27 = load i32, ptr %8, align 4
  %28 = shl i32 %27, 4
  %29 = load i8, ptr %6, align 1
  %30 = zext i8 %29 to i32
  %31 = or i32 %28, %30
  %32 = trunc i32 %31 to i8
  call void @_ZN3ue29CharReach3setEh(ptr noundef nonnull align 8 dereferenceable(32) %0, i8 noundef zeroext %32)
  call void @llvm.lifetime.end.p0(i64 4, ptr %8) #7
  br label %22, !llvm.loop !7

33:                                               ; preds = %22
  %34 = load ptr, ptr %5, align 8
  %35 = load i8, ptr %6, align 1
  %36 = zext i8 %35 to i64
  %37 = getelementptr inbounds nuw i8, ptr %34, i64 %36
  %38 = load i8, ptr %37, align 1
  %39 = zext i8 %38 to i32
  store i32 %39, ptr %7, align 4
  br label %40

40:                                               ; preds = %43, %33
  %41 = load i32, ptr %7, align 4
  %42 = icmp ne i32 %41, 0
  br i1 %42, label %43, label %52

43:                                               ; preds = %40
  call void @llvm.lifetime.start.p0(i64 4, ptr %9) #7
  %44 = call noundef i32 @_ZL18findAndClearLSB_32Pj(ptr noundef %7)
  store i32 %44, ptr %9, align 4
  %45 = load i32, ptr %9, align 4
  %46 = shl i32 %45, 4
  %47 = or i32 128, %46
  %48 = load i8, ptr %6, align 1
  %49 = zext i8 %48 to i32
  %50 = or i32 %47, %49
  %51 = trunc i32 %50 to i8
  call void @_ZN3ue29CharReach3setEh(ptr noundef nonnull align 8 dereferenceable(32) %0, i8 noundef zeroext %51)
  call void @llvm.lifetime.end.p0(i64 4, ptr %9) #7
  br label %40, !llvm.loop !8

52:                                               ; preds = %40
  call void @llvm.lifetime.end.p0(i64 4, ptr %7) #7
  br label %53

53:                                               ; preds = %52
  %54 = load i8, ptr %6, align 1
  %55 = add i8 %54, 1
  store i8 %55, ptr %6, align 1
  br label %10, !llvm.loop !9

56:                                               ; preds = %14
  ret void
}