; Function Attrs: mustprogress memory(argmem: readwrite) uwtable
define hidden void @_ZN3ue210truffle2crEPKhS1_(ptr dead_on_unwind noalias writable sret(%"class.ue2::CharReach") align 8 captures(none) initializes((0, 32)) %0, ptr noundef readonly captures(none) %1, ptr noundef readonly captures(none) %2) local_unnamed_addr #2 {
  tail call void @llvm.memset.p0.i64(ptr noundef nonnull align 8 dereferenceable(32) %0, i8 0, i64 32, i1 false)
  br label %5

4:                                                ; preds = %._crit_edge22
  ret void

5:                                                ; preds = %3, %._crit_edge22
  %indvars.iv = phi i64 [ 0, %3 ], [ %indvars.iv.next, %._crit_edge22 ]
  %6 = getelementptr inbounds nuw i8, ptr %1, i64 %indvars.iv
  %7 = load i8, ptr %6, align 1
  %.not16 = icmp eq i8 %7, 0
  br i1 %.not16, label %._crit_edge, label %.lr.ph.preheader

.lr.ph.preheader:                                 ; preds = %5
  %8 = zext i8 %7 to i32
  br label %.lr.ph

.lr.ph:                                           ; preds = %.lr.ph.preheader, %.lr.ph
  %.01517 = phi i32 [ %11, %.lr.ph ], [ %8, %.lr.ph.preheader ]
  %9 = tail call { i32, i32 } asm "bsf $1, $0\0Abtr $0, $1\0A", "=r,=r,1,~{dirflag},~{fpsr},~{flags}"(i32 %.01517) #4, !srcloc !9
  %10 = extractvalue { i32, i32 } %9, 0
  %11 = extractvalue { i32, i32 } %9, 1
  %.tr11 = zext i32 %10 to i64
  %12 = shl nuw nsw i64 %.tr11, 4
  %13 = and i64 %12, 240
  %14 = add nuw nsw i64 %13, %indvars.iv
  %15 = and i64 %14, 63
  %16 = shl nuw i64 1, %15
  %17 = lshr i64 %14, 6
  %18 = getelementptr inbounds nuw [4 x i64], ptr %0, i64 0, i64 %17
  %19 = load i64, ptr %18, align 8
  %20 = or i64 %16, %19
  store i64 %20, ptr %18, align 8
  %.not = icmp eq i32 %11, 0
  br i1 %.not, label %._crit_edge, label %.lr.ph, !llvm.loop !10

._crit_edge:                                      ; preds = %.lr.ph, %5
  %21 = getelementptr inbounds nuw i8, ptr %2, i64 %indvars.iv
  %22 = load i8, ptr %21, align 1
  %.not1018 = icmp eq i8 %22, 0
  br i1 %.not1018, label %._crit_edge22, label %.lr.ph21.preheader

.lr.ph21.preheader:                               ; preds = %._crit_edge
  %23 = zext i8 %22 to i32
  br label %.lr.ph21

.lr.ph21:                                         ; preds = %.lr.ph21.preheader, %.lr.ph21
  %.119 = phi i32 [ %26, %.lr.ph21 ], [ %23, %.lr.ph21.preheader ]
  %24 = tail call { i32, i32 } asm "bsf $1, $0\0Abtr $0, $1\0A", "=r,=r,1,~{dirflag},~{fpsr},~{flags}"(i32 %.119) #4, !srcloc !9
  %25 = extractvalue { i32, i32 } %24, 0
  %26 = extractvalue { i32, i32 } %24, 1
  %.tr = zext i32 %25 to i64
  %27 = shl nuw nsw i64 %.tr, 4
  %28 = add nuw i64 %27, %indvars.iv
  %29 = and i64 %28, 63
  %30 = shl nuw i64 1, %29
  %31 = lshr i64 %28, 6
  %32 = and i64 %31, 1
  %33 = or disjoint i64 %32, 2
  %34 = getelementptr inbounds nuw [4 x i64], ptr %0, i64 0, i64 %33
  %35 = load i64, ptr %34, align 8
  %36 = or i64 %30, %35
  store i64 %36, ptr %34, align 8
  %.not10 = icmp eq i32 %26, 0
  br i1 %.not10, label %._crit_edge22, label %.lr.ph21, !llvm.loop !11

._crit_edge22:                                    ; preds = %.lr.ph21, %._crit_edge
  %indvars.iv.next = add nuw nsw i64 %indvars.iv, 1
  %exitcond.not = icmp eq i64 %indvars.iv.next, 16
  br i1 %exitcond.not, label %4, label %5, !llvm.loop !12
}